target datalayout = "e-m:e-p270:32:32-p271:32:32-p272:64:64-i64:64-i128:128-f80:128-n8:16:32:64-S128"
target triple = "x86_64-pc-linux-gnu"

%struct.stbtt_aligned_quad = type { float, float, float, float, float, float, float, float }
%struct.stbtt_packedchar = type { i16, i16, i16, i16, float, float, float, float, float }

; Function Attrs: nounwind uwtable
define void @stbtt_GetPackedQuad(ptr noundef %0, i32 noundef %1, i32 noundef %2, i32 noundef %3, ptr noundef %4, ptr noundef %5, ptr noundef %6, i32 noundef %7) #0 {
  %9 = alloca ptr, align 8
  %10 = alloca i32, align 4
  %11 = alloca i32, align 4
  %12 = alloca i32, align 4
  %13 = alloca ptr, align 8
  %14 = alloca ptr, align 8
  %15 = alloca ptr, align 8
  %16 = alloca i32, align 4
  %17 = alloca float, align 4
  %18 = alloca float, align 4
  %19 = alloca ptr, align 8
  %20 = alloca float, align 4
  %21 = alloca float, align 4
  store ptr %0, ptr %9, align 8, !tbaa !3
  store i32 %1, ptr %10, align 4, !tbaa !14
  store i32 %2, ptr %11, align 4, !tbaa !14
  store i32 %3, ptr %12, align 4, !tbaa !14
  store ptr %4, ptr %13, align 8, !tbaa !133
  store ptr %5, ptr %14, align 8, !tbaa !133
  store ptr %6, ptr %15, align 8, !tbaa !3
  store i32 %7, ptr %16, align 4, !tbaa !14
  call void @llvm.lifetime.start.p0(i64 4, ptr %17) #8
  %22 = load i32, ptr %10, align 4, !tbaa !14
  %23 = sitofp i32 %22 to float
  %24 = fdiv float 1.000000e+00, %23
  store float %24, ptr %17, align 4, !tbaa !67
  call void @llvm.lifetime.start.p0(i64 4, ptr %18) #8
  %25 = load i32, ptr %11, align 4, !tbaa !14
  %26 = sitofp i32 %25 to float
  %27 = fdiv float 1.000000e+00, %26
  store float %27, ptr %18, align 4, !tbaa !67
  call void @llvm.lifetime.start.p0(i64 8, ptr %19) #8
  %28 = load ptr, ptr %9, align 8, !tbaa !3
  %29 = load i32, ptr %12, align 4, !tbaa !14
  %30 = sext i32 %29 to i64
  %31 = getelementptr inbounds %struct.stbtt_packedchar, ptr %28, i64 %30
  store ptr %31, ptr %19, align 8, !tbaa !3
  %32 = load i32, ptr %16, align 4, !tbaa !14
  %33 = icmp ne i32 %32, 0
  br i1 %33, label %34, label %85

34:                                               ; preds = %8
  call void @llvm.lifetime.start.p0(i64 4, ptr %20) #8
  %35 = load ptr, ptr %13, align 8, !tbaa !133
  %36 = load float, ptr %35, align 4, !tbaa !67
  %37 = load ptr, ptr %19, align 8, !tbaa !3
  %38 = getelementptr inbounds nuw %struct.stbtt_packedchar, ptr %37, i32 0, i32 4
  %39 = load float, ptr %38, align 4, !tbaa !244
  %40 = fadd float %36, %39
  %41 = fadd float %40, 5.000000e-01
  %42 = fpext float %41 to double
  %43 = call double @llvm.floor.f64(double %42)
  %44 = fptosi double %43 to i32
  %45 = sitofp i32 %44 to float
  store float %45, ptr %20, align 4, !tbaa !67
  call void @llvm.lifetime.start.p0(i64 4, ptr %21) #8
  %46 = load ptr, ptr %14, align 8, !tbaa !133
  %47 = load float, ptr %46, align 4, !tbaa !67
  %48 = load ptr, ptr %19, align 8, !tbaa !3
  %49 = getelementptr inbounds nuw %struct.stbtt_packedchar, ptr %48, i32 0, i32 5
  %50 = load float, ptr %49, align 4, !tbaa !245
  %51 = fadd float %47, %50
  %52 = fadd float %51, 5.000000e-01
  %53 = fpext float %52 to double
  %54 = call double @llvm.floor.f64(double %53)
  %55 = fptosi double %54 to i32
  %56 = sitofp i32 %55 to float
  store float %56, ptr %21, align 4, !tbaa !67
  %57 = load float, ptr %20, align 4, !tbaa !67
  %58 = load ptr, ptr %15, align 8, !tbaa !3
  %59 = getelementptr inbounds nuw %struct.stbtt_aligned_quad, ptr %58, i32 0, i32 0
  store float %57, ptr %59, align 4, !tbaa !175
  %60 = load float, ptr %21, align 4, !tbaa !67
  %61 = load ptr, ptr %15, align 8, !tbaa !3
  %62 = getelementptr inbounds nuw %struct.stbtt_aligned_quad, ptr %61, i32 0, i32 1
  store float %60, ptr %62, align 4, !tbaa !177
  %63 = load float, ptr %20, align 4, !tbaa !67
  %64 = load ptr, ptr %19, align 8, !tbaa !3
  %65 = getelementptr inbounds nuw %struct.stbtt_packedchar, ptr %64, i32 0, i32 7
  %66 = load float, ptr %65, align 4, !tbaa !246
  %67 = fadd float %63, %66
  %68 = load ptr, ptr %19, align 8, !tbaa !3
  %69 = getelementptr inbounds nuw %struct.stbtt_packedchar, ptr %68, i32 0, i32 4
  %70 = load float, ptr %69, align 4, !tbaa !244
  %71 = fsub float %67, %70
  %72 = load ptr, ptr %15, align 8, !tbaa !3
  %73 = getelementptr inbounds nuw %struct.stbtt_aligned_quad, ptr %72, i32 0, i32 4
  store float %71, ptr %73, align 4, !tbaa !178
  %74 = load float, ptr %21, align 4, !tbaa !67
  %75 = load ptr, ptr %19, align 8, !tbaa !3
  %76 = getelementptr inbounds nuw %struct.stbtt_packedchar, ptr %75, i32 0, i32 8
  %77 = load float, ptr %76, align 4, !tbaa !247
  %78 = fadd float %74, %77
  %79 = load ptr, ptr %19, align 8, !tbaa !3
  %80 = getelementptr inbounds nuw %struct.stbtt_packedchar, ptr %79, i32 0, i32 5
  %81 = load float, ptr %80, align 4, !tbaa !245
  %82 = fsub float %78, %81
  %83 = load ptr, ptr %15, align 8, !tbaa !3
  %84 = getelementptr inbounds nuw %struct.stbtt_aligned_quad, ptr %83, i32 0, i32 5
  store float %82, ptr %84, align 4, !tbaa !179
  call void @llvm.lifetime.end.p0(i64 4, ptr %21) #8
  call void @llvm.lifetime.end.p0(i64 4, ptr %20) #8
  br label %118

85:                                               ; preds = %8
  %86 = load ptr, ptr %13, align 8, !tbaa !133
  %87 = load float, ptr %86, align 4, !tbaa !67
  %88 = load ptr, ptr %19, align 8, !tbaa !3
  %89 = getelementptr inbounds nuw %struct.stbtt_packedchar, ptr %88, i32 0, i32 4
  %90 = load float, ptr %89, align 4, !tbaa !244
  %91 = fadd float %87, %90
  %92 = load ptr, ptr %15, align 8, !tbaa !3
  %93 = getelementptr inbounds nuw %struct.stbtt_aligned_quad, ptr %92, i32 0, i32 0
  store float %91, ptr %93, align 4, !tbaa !175
  %94 = load ptr, ptr %14, align 8, !tbaa !133
  %95 = load float, ptr %94, align 4, !tbaa !67
  %96 = load ptr, ptr %19, align 8, !tbaa !3
  %97 = getelementptr inbounds nuw %struct.stbtt_packedchar, ptr %96, i32 0, i32 5
  %98 = load float, ptr %97, align 4, !tbaa !245
  %99 = fadd float %95, %98
  %100 = load ptr, ptr %15, align 8, !tbaa !3
  %101 = getelementptr inbounds nuw %struct.stbtt_aligned_quad, ptr %100, i32 0, i32 1
  store float %99, ptr %101, align 4, !tbaa !177
  %102 = load ptr, ptr %13, align 8, !tbaa !133
  %103 = load float, ptr %102, align 4, !tbaa !67
  %104 = load ptr, ptr %19, align 8, !tbaa !3
  %105 = getelementptr inbounds nuw %struct.stbtt_packedchar, ptr %104, i32 0, i32 7
  %106 = load float, ptr %105, align 4, !tbaa !246
  %107 = fadd float %103, %106
  %108 = load ptr, ptr %15, align 8, !tbaa !3
  %109 = getelementptr inbounds nuw %struct.stbtt_aligned_quad, ptr %108, i32 0, i32 4
  store float %107, ptr %109, align 4, !tbaa !178
  %110 = load ptr, ptr %14, align 8, !tbaa !133
  %111 = load float, ptr %110, align 4, !tbaa !67
  %112 = load ptr, ptr %19, align 8, !tbaa !3
  %113 = getelementptr inbounds nuw %struct.stbtt_packedchar, ptr %112, i32 0, i32 8
  %114 = load float, ptr %113, align 4, !tbaa !247
  %115 = fadd float %111, %114
  %116 = load ptr, ptr %15, align 8, !tbaa !3
  %117 = getelementptr inbounds nuw %struct.stbtt_aligned_quad, ptr %116, i32 0, i32 5
  store float %115, ptr %117, align 4, !tbaa !179
  br label %118

118:                                              ; preds = %85, %34
  %119 = load ptr, ptr %19, align 8, !tbaa !3
  %120 = getelementptr inbounds nuw %struct.stbtt_packedchar, ptr %119, i32 0, i32 0
  %121 = load i16, ptr %120, align 4, !tbaa !238
  %122 = zext i16 %121 to i32
  %123 = sitofp i32 %122 to float
  %124 = load float, ptr %17, align 4, !tbaa !67
  %125 = fmul float %123, %124
  %126 = load ptr, ptr %15, align 8, !tbaa !3
  %127 = getelementptr inbounds nuw %struct.stbtt_aligned_quad, ptr %126, i32 0, i32 2
  store float %125, ptr %127, align 4, !tbaa !180
  %128 = load ptr, ptr %19, align 8, !tbaa !3
  %129 = getelementptr inbounds nuw %struct.stbtt_packedchar, ptr %128, i32 0, i32 1
  %130 = load i16, ptr %129, align 2, !tbaa !240
  %131 = zext i16 %130 to i32
  %132 = sitofp i32 %131 to float
  %133 = load float, ptr %18, align 4, !tbaa !67
  %134 = fmul float %132, %133
  %135 = load ptr, ptr %15, align 8, !tbaa !3
  %136 = getelementptr inbounds nuw %struct.stbtt_aligned_quad, ptr %135, i32 0, i32 3
  store float %134, ptr %136, align 4, !tbaa !181
  %137 = load ptr, ptr %19, align 8, !tbaa !3
  %138 = getelementptr inbounds nuw %struct.stbtt_packedchar, ptr %137, i32 0, i32 2
  %139 = load i16, ptr %138, align 4, !tbaa !241
  %140 = zext i16 %139 to i32
  %141 = sitofp i32 %140 to float
  %142 = load float, ptr %17, align 4, !tbaa !67
  %143 = fmul float %141, %142
  %144 = load ptr, ptr %15, align 8, !tbaa !3
  %145 = getelementptr inbounds nuw %struct.stbtt_aligned_quad, ptr %144, i32 0, i32 6
  store float %143, ptr %145, align 4, !tbaa !182
  %146 = load ptr, ptr %19, align 8, !tbaa !3
  %147 = getelementptr inbounds nuw %struct.stbtt_packedchar, ptr %146, i32 0, i32 3
  %148 = load i16, ptr %147, align 2, !tbaa !242
  %149 = zext i16 %148 to i32
  %150 = sitofp i32 %149 to float
  %151 = load float, ptr %18, align 4, !tbaa !67
  %152 = fmul float %150, %151
  %153 = load ptr, ptr %15, align 8, !tbaa !3
  %154 = getelementptr inbounds nuw %struct.stbtt_aligned_quad, ptr %153, i32 0, i32 7
  store float %152, ptr %154, align 4, !tbaa !183
  %155 = load ptr, ptr %19, align 8, !tbaa !3
  %156 = getelementptr inbounds nuw %struct.stbtt_packedchar, ptr %155, i32 0, i32 6
  %157 = load float, ptr %156, align 4, !tbaa !243
  %158 = load ptr, ptr %13, align 8, !tbaa !133
  %159 = load float, ptr %158, align 4, !tbaa !67
  %160 = fadd float %159, %157
  store float %160, ptr %158, align 4, !tbaa !67
  call void @llvm.lifetime.end.p0(i64 8, ptr %19) #8
  call void @llvm.lifetime.end.p0(i64 4, ptr %18) #8
  call void @llvm.lifetime.end.p0(i64 4, ptr %17) #8
  ret void
}