; Function Attrs: mustprogress nofree norecurse nosync nounwind willreturn memory(argmem: readwrite) uwtable
define void @stbtt_GetPackedQuad(ptr noundef readonly captures(none) %0, i32 noundef %1, i32 noundef %2, i32 noundef %3, ptr noundef captures(none) %4, ptr noundef readonly captures(none) %5, ptr noundef writeonly captures(none) initializes((0, 32)) %6, i32 noundef %7) local_unnamed_addr #2 {
  %9 = sext i32 %3 to i64
  %10 = getelementptr inbounds %struct.stbtt_packedchar, ptr %0, i64 %9
  %.not = icmp eq i32 %7, 0
  %11 = load float, ptr %4, align 4, !tbaa !71
  %12 = getelementptr inbounds nuw i8, ptr %10, i64 8
  %13 = load float, ptr %12, align 4, !tbaa !219
  %14 = fadd float %11, %13
  br i1 %.not, label %38, label %15

15:                                               ; preds = %8
  %16 = fadd float %14, 5.000000e-01
  %17 = tail call float @llvm.floor.f32(float %16)
  %18 = fptosi float %17 to i32
  %19 = sitofp i32 %18 to float
  %20 = load float, ptr %5, align 4, !tbaa !71
  %21 = getelementptr inbounds nuw i8, ptr %10, i64 12
  %22 = load float, ptr %21, align 4, !tbaa !220
  %23 = fadd float %20, %22
  %24 = fadd float %23, 5.000000e-01
  %25 = tail call float @llvm.floor.f32(float %24)
  %26 = fptosi float %25 to i32
  %27 = sitofp i32 %26 to float
  store float %19, ptr %6, align 4, !tbaa !154
  %28 = getelementptr inbounds nuw i8, ptr %6, i64 4
  store float %27, ptr %28, align 4, !tbaa !156
  %29 = getelementptr inbounds nuw i8, ptr %10, i64 20
  %30 = load float, ptr %29, align 4, !tbaa !221
  %31 = fadd float %30, %19
  %32 = fsub float %31, %13
  %33 = getelementptr inbounds nuw i8, ptr %6, i64 16
  store float %32, ptr %33, align 4, !tbaa !157
  %34 = getelementptr inbounds nuw i8, ptr %10, i64 24
  %35 = load float, ptr %34, align 4, !tbaa !222
  %36 = fadd float %35, %27
  %37 = fsub float %36, %22
  br label %53

38:                                               ; preds = %8
  store float %14, ptr %6, align 4, !tbaa !154
  %39 = load float, ptr %5, align 4, !tbaa !71
  %40 = getelementptr inbounds nuw i8, ptr %10, i64 12
  %41 = load float, ptr %40, align 4, !tbaa !220
  %42 = fadd float %39, %41
  %43 = getelementptr inbounds nuw i8, ptr %6, i64 4
  store float %42, ptr %43, align 4, !tbaa !156
  %44 = load float, ptr %4, align 4, !tbaa !71
  %45 = getelementptr inbounds nuw i8, ptr %10, i64 20
  %46 = load float, ptr %45, align 4, !tbaa !221
  %47 = fadd float %44, %46
  %48 = getelementptr inbounds nuw i8, ptr %6, i64 16
  store float %47, ptr %48, align 4, !tbaa !157
  %49 = load float, ptr %5, align 4, !tbaa !71
  %50 = getelementptr inbounds nuw i8, ptr %10, i64 24
  %51 = load float, ptr %50, align 4, !tbaa !222
  %52 = fadd float %49, %51
  br label %53

53:                                               ; preds = %38, %15
  %.sink = phi float [ %52, %38 ], [ %37, %15 ]
  %54 = getelementptr inbounds nuw i8, ptr %6, i64 20
  store float %.sink, ptr %54, align 4, !tbaa !158
  %55 = sitofp i32 %2 to float
  %56 = fdiv float 1.000000e+00, %55
  %57 = sitofp i32 %1 to float
  %58 = fdiv float 1.000000e+00, %57
  %59 = load i16, ptr %10, align 4, !tbaa !213
  %60 = uitofp i16 %59 to float
  %61 = fmul float %58, %60
  %62 = getelementptr inbounds nuw i8, ptr %6, i64 8
  store float %61, ptr %62, align 4, !tbaa !159
  %63 = getelementptr inbounds nuw i8, ptr %10, i64 2
  %64 = load i16, ptr %63, align 2, !tbaa !215
  %65 = uitofp i16 %64 to float
  %66 = fmul float %56, %65
  %67 = getelementptr inbounds nuw i8, ptr %6, i64 12
  store float %66, ptr %67, align 4, !tbaa !160
  %68 = getelementptr inbounds nuw i8, ptr %10, i64 4
  %69 = load i16, ptr %68, align 4, !tbaa !216
  %70 = uitofp i16 %69 to float
  %71 = fmul float %58, %70
  %72 = getelementptr inbounds nuw i8, ptr %6, i64 24
  store float %71, ptr %72, align 4, !tbaa !161
  %73 = getelementptr inbounds nuw i8, ptr %10, i64 6
  %74 = load i16, ptr %73, align 2, !tbaa !217
  %75 = uitofp i16 %74 to float
  %76 = fmul float %56, %75
  %77 = getelementptr inbounds nuw i8, ptr %6, i64 28
  store float %76, ptr %77, align 4, !tbaa !162
  %78 = getelementptr inbounds nuw i8, ptr %10, i64 16
  %79 = load float, ptr %78, align 4, !tbaa !218
  %80 = load float, ptr %4, align 4, !tbaa !71
  %81 = fadd float %79, %80
  store float %81, ptr %4, align 4, !tbaa !71
  ret void
}